target datalayout = "e-m:e-p270:32:32-p271:32:32-p272:64:64-i64:64-i128:128-f80:128-n8:16:32:64-S128"
target triple = "x86_64-pc-linux-gnu"

%struct.CPpmd7z_RangeDec = type { %struct.IPpmd7_RangeDec, i32, i32, ptr }
%struct.IPpmd7_RangeDec = type { ptr, ptr, ptr }
%struct.IByteIn = type { ptr }

; Function Attrs: nounwind uwtable
define internal void @Range_Normalize(ptr noundef %0) #0 {
  %2 = alloca ptr, align 8
  store ptr %0, ptr %2, align 8
  %3 = load ptr, ptr %2, align 8
  %4 = getelementptr inbounds %struct.CPpmd7z_RangeDec, ptr %3, i32 0, i32 1
  %5 = load i32, ptr %4, align 8
  %6 = icmp ult i32 %5, 16777216
  br i1 %6, label %7, label %56

7:                                                ; preds = %1
  %8 = load ptr, ptr %2, align 8
  %9 = getelementptr inbounds %struct.CPpmd7z_RangeDec, ptr %8, i32 0, i32 2
  %10 = load i32, ptr %9, align 4
  %11 = shl i32 %10, 8
  %12 = load ptr, ptr %2, align 8
  %13 = getelementptr inbounds %struct.CPpmd7z_RangeDec, ptr %12, i32 0, i32 3
  %14 = load ptr, ptr %13, align 8
  %15 = getelementptr inbounds %struct.IByteIn, ptr %14, i32 0, i32 0
  %16 = load ptr, ptr %15, align 8
  %17 = load ptr, ptr %2, align 8
  %18 = getelementptr inbounds %struct.CPpmd7z_RangeDec, ptr %17, i32 0, i32 3
  %19 = load ptr, ptr %18, align 8
  %20 = call zeroext i8 %16(ptr noundef %19)
  %21 = zext i8 %20 to i32
  %22 = or i32 %11, %21
  %23 = load ptr, ptr %2, align 8
  %24 = getelementptr inbounds %struct.CPpmd7z_RangeDec, ptr %23, i32 0, i32 2
  store i32 %22, ptr %24, align 4
  %25 = load ptr, ptr %2, align 8
  %26 = getelementptr inbounds %struct.CPpmd7z_RangeDec, ptr %25, i32 0, i32 1
  %27 = load i32, ptr %26, align 8
  %28 = shl i32 %27, 8
  store i32 %28, ptr %26, align 8
  %29 = load ptr, ptr %2, align 8
  %30 = getelementptr inbounds %struct.CPpmd7z_RangeDec, ptr %29, i32 0, i32 1
  %31 = load i32, ptr %30, align 8
  %32 = icmp ult i32 %31, 16777216
  br i1 %32, label %33, label %55

33:                                               ; preds = %7
  %34 = load ptr, ptr %2, align 8
  %35 = getelementptr inbounds %struct.CPpmd7z_RangeDec, ptr %34, i32 0, i32 2
  %36 = load i32, ptr %35, align 4
  %37 = shl i32 %36, 8
  %38 = load ptr, ptr %2, align 8
  %39 = getelementptr inbounds %struct.CPpmd7z_RangeDec, ptr %38, i32 0, i32 3
  %40 = load ptr, ptr %39, align 8
  %41 = getelementptr inbounds %struct.IByteIn, ptr %40, i32 0, i32 0
  %42 = load ptr, ptr %41, align 8
  %43 = load ptr, ptr %2, align 8
  %44 = getelementptr inbounds %struct.CPpmd7z_RangeDec, ptr %43, i32 0, i32 3
  %45 = load ptr, ptr %44, align 8
  %46 = call zeroext i8 %42(ptr noundef %45)
  %47 = zext i8 %46 to i32
  %48 = or i32 %37, %47
  %49 = load ptr, ptr %2, align 8
  %50 = getelementptr inbounds %struct.CPpmd7z_RangeDec, ptr %49, i32 0, i32 2
  store i32 %48, ptr %50, align 4
  %51 = load ptr, ptr %2, align 8
  %52 = getelementptr inbounds %struct.CPpmd7z_RangeDec, ptr %51, i32 0, i32 1
  %53 = load i32, ptr %52, align 8
  %54 = shl i32 %53, 8
  store i32 %54, ptr %52, align 8
  br label %55

55:                                               ; preds = %33, %7
  br label %56

56:                                               ; preds = %55, %1
  ret void
}

; Function Attrs: nounwind uwtable
define internal void @Range_Decode(ptr noundef %0, i32 noundef %1, i32 noundef %2) #0 {
  %4 = alloca ptr, align 8
  %5 = alloca i32, align 4
  %6 = alloca i32, align 4
  %7 = alloca ptr, align 8
  store ptr %0, ptr %4, align 8
  store i32 %1, ptr %5, align 4
  store i32 %2, ptr %6, align 4
  %8 = load ptr, ptr %4, align 8
  store ptr %8, ptr %7, align 8
  %9 = load i32, ptr %5, align 4
  %10 = load ptr, ptr %7, align 8
  %11 = getelementptr inbounds %struct.CPpmd7z_RangeDec, ptr %10, i32 0, i32 1
  %12 = load i32, ptr %11, align 8
  %13 = mul i32 %9, %12
  %14 = load ptr, ptr %7, align 8
  %15 = getelementptr inbounds %struct.CPpmd7z_RangeDec, ptr %14, i32 0, i32 2
  %16 = load i32, ptr %15, align 4
  %17 = sub i32 %16, %13
  store i32 %17, ptr %15, align 4
  %18 = load i32, ptr %6, align 4
  %19 = load ptr, ptr %7, align 8
  %20 = getelementptr inbounds %struct.CPpmd7z_RangeDec, ptr %19, i32 0, i32 1
  %21 = load i32, ptr %20, align 8
  %22 = mul i32 %21, %18
  store i32 %22, ptr %20, align 8
  %23 = load ptr, ptr %7, align 8
  call void @Range_Normalize(ptr noundef %23)
  ret void
}