; Function Attrs: nounwind uwtable
define internal void @Range_Decode(ptr nocapture noundef %0, i32 noundef %1, i32 noundef %2) #0 {
  %4 = getelementptr inbounds i8, ptr %0, i64 24
  %5 = load i32, ptr %4, align 8
  %6 = mul i32 %5, %1
  %7 = getelementptr inbounds i8, ptr %0, i64 28
  %8 = load i32, ptr %7, align 4
  %9 = sub i32 %8, %6
  store i32 %9, ptr %7, align 4
  %10 = mul i32 %5, %2
  store i32 %10, ptr %4, align 8
  %11 = icmp ult i32 %10, 16777216
  br i1 %11, label %12, label %Range_Normalize.exit

12:                                               ; preds = %3
  %13 = shl i32 %9, 8
  %14 = getelementptr inbounds i8, ptr %0, i64 32
  %15 = load ptr, ptr %14, align 8
  %16 = load ptr, ptr %15, align 8
  %17 = tail call zeroext i8 %16(ptr noundef nonnull %15) #5
  %18 = zext i8 %17 to i32
  %19 = or disjoint i32 %13, %18
  store i32 %19, ptr %7, align 4
  %20 = load i32, ptr %4, align 8
  %21 = shl i32 %20, 8
  store i32 %21, ptr %4, align 8
  %22 = icmp ult i32 %21, 16777216
  br i1 %22, label %23, label %Range_Normalize.exit

23:                                               ; preds = %12
  %24 = shl i32 %19, 8
  %25 = load ptr, ptr %14, align 8
  %26 = load ptr, ptr %25, align 8
  %27 = tail call zeroext i8 %26(ptr noundef nonnull %25) #5
  %28 = zext i8 %27 to i32
  %29 = or disjoint i32 %24, %28
  store i32 %29, ptr %7, align 4
  %30 = load i32, ptr %4, align 8
  %31 = shl i32 %30, 8
  store i32 %31, ptr %4, align 8
  br label %Range_Normalize.exit

Range_Normalize.exit:                             ; preds = %3, %12, %23
  ret void
}